(dp0
S'channels'
p1
(lp2
(dp3
S'qual'
p4
I71
sS'freq'
p5
I45
sS'ftype'
p6
S'low'
p7
sS'gain'
p8
I-8
sa(dp9
g4
I1800
sg5
I100
sg6
S'peak'
p10
sg8
I-24
sa(dp11
g4
I1800
sg5
I450
sg6
g10
sg8
I-24
sa(dp12
g4
I1800
sg5
I2000
sg6
g10
sg8
I-24
sa(dp13
g4
I71
sg5
I15000
sg6
S'high'
p14
sg8
I0
sasS'bypass'
p15
I0
s.