(dp0
S'channels'
p1
(lp2
(dp3
S'qual'
p4
I71
sS'freq'
p5
I40
sS'ftype'
p6
S'low'
p7
sS'gain'
p8
I-5
sa(dp9
g4
I100
sg5
I150
sg6
S'peak'
p10
sg8
I0
sa(dp11
g4
I1800
sg5
I500
sg6
g10
sg8
I0
sa(dp12
g4
I1800
sg5
I1000
sg6
S'peak'
p13
sg8
I-24
sa(dp14
g4
I71
sg5
I10000
sg6
S'lpf'
p15
sg8
I0
sasS'bypass'
p16
I0
s.