((dp0
(I-1
I1
tp1
S'O2|Oscillator2'
p2
s(I-1
I0
tp3
S'O1|Oscillator1'
p4
s(I2
I0
tp5
V1
p6
s(I-1
I2
tp7
S'M|Mute'
p8
s(I0
I7
tp9
VVA
p10
s(I0
I6
tp11
VVC
p12
s(I0
I5
tp13
VCL
p14
s(I2
I1
tp15
V2
p16
s(I2
I2
tp17
V3
p18
s(I0
I9
tp19
VGR
p20
s(I0
I4
tp21
VVN
p22
s(I0
I8
tp23
VGL
p24
s(dp25
(I7
I3
tp26
(I0
I7
tp27
s(I6
I9
tp28
(I-1
I0
tp29
s(I5
I31
tp30
(I-1
I0
tp31
s(I7
I12
tp32
(I2
I0
tp33
s(I6
I28
tp34
(I-1
I0
tp35
s(I7
I25
tp36
(I-1
I2
tp37
s(I8
I5
tp38
(I0
I5
tp39
s(I10
I8
tp40
(I5
I8
tp41
s(I9
I0
tp42
(I5
I0
tp43
s(I8
I24
tp44
(I2
I4
tp45
s(I11
I5
tp46
(I2
I5
tp47
s(I10
I7
tp48
(I5
I7
tp49
s(I9
I21
tp50
(I1
I5
tp51
s(I11
I22
tp52
(I2
I22
tp53
s(I10
I18
tp54
(I2
I2
tp55
s(I11
I27
tp56
(I0
I3
tp57
s(I0
I4
tp58
(I2
I4
tp59
s(I1
I1
tp60
(I2
I1
tp61
s(I4
I10
tp62
(I0
I2
tp63
s(I3
I2
tp64
(I-1
I2
tp65
s(I5
I11
tp66
(I3
I11
tp67
s(I4
I5
tp68
(I5
I5
tp69
s(I6
I0
tp70
(I4
I0
tp71
s(I5
I24
tp72
(I-1
I0
tp73
s(I4
I16
tp74
(I1
I4
tp75
s(I7
I5
tp76
(I0
I9
tp77
s(I6
I23
tp78
(I-1
I0
tp79
s(I5
I21
tp80
(I-1
I0
tp81
s(I7
I22
tp82
(I-1
I2
tp83
s(I6
I26
tp84
(I-1
I0
tp85
s(I8
I12
tp86
(I1
I0
tp87
s(I9
I9
tp88
(I5
I9
tp89
s(I8
I31
tp90
(I2
I11
tp91
s(I10
I14
tp92
(I5
I14
tp93
s(I9
I30
tp94
(I2
I10
tp95
s(I8
I18
tp96
(I1
I6
tp97
s(I11
I15
tp98
(I2
I15
tp99
s(I10
I29
tp100
(I2
I13
tp101
s(I9
I19
tp102
(I1
I3
tp103
s(I11
I16
tp104
(I2
I16
tp105
s(I3
I11
tp106
(I-1
I2
tp107
s(I2
I1
tp108
(I2
I3
tp109
s(I4
I12
tp110
(I1
I0
tp111
s(I5
I1
tp112
(I3
I1
tp113
s(I4
I31
tp114
(I-1
I2
tp115
s(I3
I17
tp116
(I-1
I2
tp117
s(I7
I2
tp118
(I0
I6
tp119
s(I6
I14
tp120
(I-1
I0
tp121
s(I5
I30
tp122
(I-1
I0
tp123
s(I7
I15
tp124
(I2
I3
tp125
s(I6
I29
tp126
(I-1
I0
tp127
s(I7
I24
tp128
(I-1
I2
tp129
s(I8
I6
tp130
(I0
I6
tp131
s(I10
I9
tp132
(I5
I9
tp133
s(I9
I7
tp134
(I5
I7
tp135
s(I8
I25
tp136
(I2
I5
tp137
s(I11
I4
tp138
(I2
I4
tp139
s(I10
I4
tp140
(I5
I4
tp141
s(I9
I20
tp142
(I1
I4
tp143
s(I11
I9
tp144
(I2
I9
tp145
s(I10
I19
tp146
(I2
I3
tp147
s(I11
I26
tp148
(I0
I2
tp149
s(I0
I5
tp150
(I2
I5
tp151
s(I1
I0
tp152
(I2
I0
tp153
s(I4
I11
tp154
(I0
I3
tp155
s(I3
I5
tp156
(I-1
I2
tp157
s(I5
I10
tp158
(I3
I10
tp159
s(I4
I6
tp160
(I0
I10
tp161
s(I6
I1
tp162
(I4
I1
tp163
s(I5
I7
tp164
(I3
I7
tp165
s(I4
I17
tp166
(I1
I5
tp167
s(I7
I4
tp168
(I0
I8
tp169
s(I6
I20
tp170
(I-1
I0
tp171
s(I5
I20
tp172
(I-1
I0
tp173
s(I7
I17
tp174
(I-1
I2
tp175
s(I6
I27
tp176
(I-1
I0
tp177
s(I8
I13
tp178
(I1
I1
tp179
s(I9
I8
tp180
(I5
I8
tp181
s(I8
I0
tp182
(I0
I0
tp183
s(I10
I15
tp184
(I5
I15
tp185
s(I9
I29
tp186
(I2
I9
tp187
s(I8
I19
tp188
(I1
I7
tp189
s(I11
I14
tp190
(I2
I14
tp191
s(I10
I26
tp192
(I2
I10
tp193
s(I9
I18
tp194
(I1
I2
tp195
s(I11
I19
tp196
(I2
I19
tp197
s(I3
I10
tp198
(I-1
I2
tp199
s(I4
I13
tp200
(I1
I1
tp201
s(I5
I0
tp202
(I3
I0
tp203
s(I4
I24
tp204
(I-1
I2
tp205
s(I3
I16
tp206
(I-1
I2
tp207
s(I6
I15
tp208
(I-1
I0
tp209
s(I5
I29
tp210
(I-1
I0
tp211
s(I7
I14
tp212
(I2
I2
tp213
s(I6
I18
tp214
(I-1
I0
tp215
s(I7
I27
tp216
(I-1
I2
tp217
s(I8
I7
tp218
(I0
I7
tp219
s(I9
I6
tp220
(I5
I6
tp221
s(I8
I26
tp222
(I2
I6
tp223
s(I11
I7
tp224
(I2
I7
tp225
s(I10
I5
tp226
(I5
I5
tp227
s(I9
I27
tp228
(I2
I7
tp229
s(I11
I8
tp230
(I2
I8
tp231
s(I10
I16
tp232
(I2
I0
tp233
s(I11
I29
tp234
(I0
I5
tp235
s(I0
I6
tp236
(I2
I6
tp237
s(I3
I4
tp238
(I-1
I2
tp239
s(I5
I9
tp240
(I3
I9
tp241
s(I4
I7
tp242
(I0
I11
tp243
s(I6
I6
tp244
(I-1
I0
tp245
s(I5
I6
tp246
(I3
I6
tp247
s(I4
I18
tp248
(I1
I6
tp249
s(I7
I7
tp250
(I0
I11
tp251
s(I6
I21
tp252
(I-1
I0
tp253
s(I5
I19
tp254
(I-1
I0
tp255
s(I7
I16
tp256
(I-1
I2
tp257
s(I6
I24
tp258
(I-1
I0
tp259
s(I7
I29
tp260
(I-1
I2
tp261
s(I8
I14
tp262
(I1
I2
tp263
s(I9
I15
tp264
(I5
I15
tp265
s(I8
I1
tp266
(I0
I1
tp267
s(I10
I12
tp268
(I5
I12
tp269
s(I9
I28
tp270
(I2
I8
tp271
s(I8
I20
tp272
(I2
I0
tp273
s(I11
I1
tp274
(I2
I1
tp275
s(I10
I27
tp276
(I2
I11
tp277
s(I9
I17
tp278
(I1
I1
tp279
s(I11
I18
tp280
(I2
I18
tp281
s(I10
I22
tp282
(I2
I6
tp283
s(I0
I0
tp284
(I2
I0
tp285
s(I3
I13
tp286
(I-1
I2
tp287
s(I4
I14
tp288
(I1
I2
tp289
s(I5
I15
tp290
(I3
I15
tp291
s(I4
I25
tp292
(I-1
I2
tp293
s(I3
I19
tp294
(I-1
I2
tp295
s(I6
I12
tp296
(I-1
I0
tp297
s(I5
I28
tp298
(I-1
I0
tp299
s(I4
I20
tp300
(I4
I0
tp301
s(I7
I9
tp302
(I0
I1
tp303
s(I6
I19
tp304
(I-1
I0
tp305
s(I7
I26
tp306
(I-1
I2
tp307
s(I8
I8
tp308
(I0
I8
tp309
s(I9
I5
tp310
(I5
I5
tp311
s(I8
I27
tp312
(I2
I7
tp313
s(I11
I6
tp314
(I2
I6
tp315
s(I10
I2
tp316
(I5
I2
tp317
s(I9
I26
tp318
(I2
I6
tp319
s(I11
I11
tp320
(I2
I11
tp321
s(I10
I17
tp322
(I2
I1
tp323
s(I11
I28
tp324
(I0
I4
tp325
s(I0
I7
tp326
(I2
I7
tp327
s(I3
I7
tp328
(I-1
I2
tp329
s(I5
I8
tp330
(I3
I8
tp331
s(I4
I0
tp332
(I5
I0
tp333
s(I6
I7
tp334
(I-1
I0
tp335
s(I5
I5
tp336
(I3
I5
tp337
s(I4
I19
tp338
(I1
I7
tp339
s(I7
I6
tp340
(I0
I10
tp341
s(I6
I10
tp342
(I-1
I0
tp343
s(I5
I18
tp344
(I-1
I0
tp345
s(I7
I19
tp346
(I-1
I2
tp347
s(I6
I25
tp348
(I-1
I0
tp349
s(I7
I28
tp350
(I-1
I2
tp351
s(I8
I15
tp352
(I1
I3
tp353
s(I9
I14
tp354
(I5
I14
tp355
s(I8
I2
tp356
(I0
I2
tp357
s(I10
I13
tp358
(I5
I13
tp359
s(I9
I3
tp360
(I5
I3
tp361
s(I8
I21
tp362
(I2
I1
tp363
s(I11
I0
tp364
(I2
I0
tp365
s(I10
I24
tp366
(I2
I8
tp367
s(I9
I16
tp368
(I1
I0
tp369
s(I11
I21
tp370
(I2
I21
tp371
s(I10
I23
tp372
(I2
I7
tp373
s(I0
I1
tp374
(I2
I1
tp375
s(I3
I12
tp376
(I-1
I2
tp377
s(I4
I15
tp378
(I1
I3
tp379
s(I3
I1
tp380
(I2
I1
tp381
s(I5
I14
tp382
(I3
I14
tp383
s(I4
I26
tp384
(I-1
I2
tp385
s(I3
I18
tp386
(I-1
I2
tp387
s(I6
I13
tp388
(I-1
I0
tp389
s(I5
I27
tp390
(I-1
I0
tp391
s(I4
I21
tp392
(I4
I1
tp393
s(I7
I8
tp394
(I0
I0
tp395
s(I6
I16
tp396
(I-1
I0
tp397
s(I7
I21
tp398
(I-1
I2
tp399
s(I8
I9
tp400
(I0
I9
tp401
s(I9
I4
tp402
(I5
I4
tp403
s(I8
I28
tp404
(I2
I8
tp405
s(I10
I3
tp406
(I5
I3
tp407
s(I9
I25
tp408
(I2
I5
tp409
s(I11
I10
tp410
(I2
I10
tp411
s(I10
I30
tp412
(I2
I14
tp413
s(I11
I31
tp414
(I0
I7
tp415
s(I3
I6
tp416
(I-1
I2
tp417
s(I4
I1
tp418
(I5
I1
tp419
s(I6
I4
tp420
(I-1
I0
tp421
s(I5
I4
tp422
(I3
I4
tp423
s(I4
I28
tp424
(I-1
I2
tp425
s(I7
I1
tp426
(I0
I5
tp427
s(I6
I11
tp428
(I-1
I0
tp429
s(I5
I17
tp430
(I-1
I0
tp431
s(I7
I18
tp432
(I-1
I2
tp433
s(I6
I30
tp434
(I-1
I0
tp435
s(I7
I31
tp436
(I-1
I2
tp437
s(I9
I13
tp438
(I5
I13
tp439
s(I8
I3
tp440
(I0
I3
tp441
s(I10
I10
tp442
(I5
I10
tp443
s(I9
I2
tp444
(I5
I2
tp445
s(I8
I22
tp446
(I2
I2
tp447
s(I11
I3
tp448
(I2
I3
tp449
s(I10
I25
tp450
(I2
I9
tp451
s(I9
I23
tp452
(I1
I7
tp453
s(I11
I20
tp454
(I2
I20
tp455
s(I10
I20
tp456
(I2
I4
tp457
s(I11
I25
tp458
(I0
I1
tp459
s(I0
I2
tp460
(I2
I2
tp461
s(I3
I15
tp462
(I-1
I2
tp463
s(I4
I8
tp464
(I0
I0
tp465
s(I3
I0
tp466
(I2
I0
tp467
s(I5
I13
tp468
(I3
I13
tp469
s(I4
I27
tp470
(I-1
I2
tp471
s(I6
I2
tp472
(I-1
I0
tp473
s(I5
I26
tp474
(I-1
I0
tp475
s(I4
I22
tp476
(I6
I0
tp477
s(I7
I11
tp478
(I0
I3
tp479
s(I6
I17
tp480
(I-1
I0
tp481
s(I5
I23
tp482
(I-1
I0
tp483
s(I7
I20
tp484
(I-1
I2
tp485
s(I8
I10
tp486
(I0
I10
tp487
s(I9
I11
tp488
(I5
I11
tp489
s(I8
I29
tp490
(I2
I9
tp491
s(I10
I0
tp492
(I5
I0
tp493
s(I9
I24
tp494
(I2
I4
tp495
s(I8
I16
tp496
(I1
I4
tp497
s(I11
I13
tp498
(I2
I13
tp499
s(I10
I31
tp500
(I2
I15
tp501
s(I11
I30
tp502
(I0
I6
tp503
s(I3
I9
tp504
(I-1
I2
tp505
s(I4
I2
tp506
(I5
I2
tp507
s(I6
I5
tp508
(I-1
I0
tp509
s(I5
I3
tp510
(I3
I3
tp511
s(I4
I29
tp512
(I-1
I2
tp513
s(I7
I0
tp514
(I0
I4
tp515
s(I6
I8
tp516
(I-1
I0
tp517
s(I5
I16
tp518
(I-1
I0
tp519
s(I7
I13
tp520
(I2
I1
tp521
s(I6
I31
tp522
(I-1
I0
tp523
s(I7
I30
tp524
(I-1
I2
tp525
s(I9
I12
tp526
(I5
I12
tp527
s(I8
I4
tp528
(I0
I4
tp529
s(I10
I11
tp530
(I5
I11
tp531
s(I9
I1
tp532
(I5
I1
tp533
s(I8
I23
tp534
(I2
I3
tp535
s(I11
I2
tp536
(I2
I2
tp537
s(I10
I6
tp538
(I5
I6
tp539
s(I9
I22
tp540
(I1
I6
tp541
s(I11
I23
tp542
(I2
I23
tp543
s(I10
I21
tp544
(I2
I5
tp545
s(I11
I24
tp546
(I0
I0
tp547
s(I0
I3
tp548
(I2
I3
tp549
s(I3
I14
tp550
(I-1
I2
tp551
s(I4
I9
tp552
(I0
I1
tp553
s(I3
I3
tp554
(I-1
I2
tp555
s(I5
I12
tp556
(I3
I12
tp557
s(I4
I4
tp558
(I5
I4
tp559
s(I6
I3
tp560
(I-1
I0
tp561
s(I5
I25
tp562
(I-1
I0
tp563
s(I4
I23
tp564
(I6
I1
tp565
s(I7
I10
tp566
(I0
I2
tp567
s(I6
I22
tp568
(I-1
I0
tp569
s(I5
I22
tp570
(I-1
I0
tp571
s(I7
I23
tp572
(I-1
I2
tp573
s(I8
I11
tp574
(I0
I11
tp575
s(I9
I10
tp576
(I5
I10
tp577
s(I8
I30
tp578
(I2
I10
tp579
s(I10
I1
tp580
(I5
I1
tp581
s(I9
I31
tp582
(I2
I11
tp583
s(I8
I17
tp584
(I1
I5
tp585
s(I11
I12
tp586
(I2
I12
tp587
s(I10
I28
tp588
(I2
I12
tp589
s(I11
I17
tp590
(I2
I17
tp591
s(I3
I8
tp592
(I-1
I2
tp593
s(I2
I0
tp594
(I2
I2
tp595
s(I4
I3
tp596
(I5
I3
tp597
s(I5
I2
tp598
(I3
I2
tp599
s(I4
I30
tp600
(I-1
I2
tp601
stp602
.